target datalayout = "e-m:e-p270:32:32-p271:32:32-p272:64:64-i64:64-i128:128-f80:128-n8:16:32:64-S128"
target triple = "x86_64-unknown-linux-gnu"

%"class.pstd::pmr::polymorphic_allocator" = type { ptr }
%"class.pbrt::Transform" = type { %"class.pbrt::SquareMatrix.4", %"class.pbrt::SquareMatrix.4" }
%"class.pbrt::SquareMatrix.4" = type { [4 x [4 x float]] }
%"class.pbrt::TextureMapping3D" = type { %"class.pbrt::TaggedPointer.5" }
%"class.pbrt::TaggedPointer.5" = type { i64 }
%"class.pbrt::PointTransformMapping" = type { %"class.pbrt::Transform" }
%"class.pbrt::TextureParameterDictionary" = type { ptr, ptr }
%"class.pbrt::WindyTexture" = type { %"class.pbrt::TextureMapping3D" }

; Function Attrs: mustprogress nounwind uwtable
define linkonce_odr dso_local void @_ZN4pbrt13TaggedPointerIJNS_21PointTransformMappingEEEC2ERKS2_(ptr noundef nonnull align 8 dereferenceable(8) %this, ptr noundef nonnull align 8 dereferenceable(8) %t) unnamed_addr #5 comdat align 2 {
entry:
  %this.addr = alloca ptr, align 8
  %t.addr = alloca ptr, align 8
  store ptr %this, ptr %this.addr, align 8
  store ptr %t, ptr %t.addr, align 8
  %this1 = load ptr, ptr %this.addr, align 8
  %bits = getelementptr inbounds %"class.pbrt::TaggedPointer.5", ptr %this1, i32 0, i32 0
  store i64 0, ptr %bits, align 8
  %0 = load ptr, ptr %t.addr, align 8
  %bits2 = getelementptr inbounds %"class.pbrt::TaggedPointer.5", ptr %0, i32 0, i32 0
  %1 = load i64, ptr %bits2, align 8
  %bits3 = getelementptr inbounds %"class.pbrt::TaggedPointer.5", ptr %this1, i32 0, i32 0
  store i64 %1, ptr %bits3, align 8
  ret void
}

; Function Attrs: mustprogress uwtable
define linkonce_odr dso_local noundef ptr @_ZN4pstd3pmr15memory_resource8allocateEmm(ptr noundef nonnull align 8 dereferenceable(8) %this, i64 noundef %bytes, i64 noundef %alignment) #1 comdat align 2 {
entry:
  %retval = alloca ptr, align 8
  %this.addr = alloca ptr, align 8
  %bytes.addr = alloca i64, align 8
  %alignment.addr = alloca i64, align 8
  store ptr %this, ptr %this.addr, align 8
  store i64 %bytes, ptr %bytes.addr, align 8
  store i64 %alignment, ptr %alignment.addr, align 8
  %this1 = load ptr, ptr %this.addr, align 8
  %0 = load i64, ptr %bytes.addr, align 8
  %cmp = icmp eq i64 %0, 0
  br i1 %cmp, label %if.then, label %if.end

if.then:                                          ; preds = %entry
  store ptr null, ptr %retval, align 8
  br label %return

if.end:                                           ; preds = %entry
  %1 = load i64, ptr %bytes.addr, align 8
  %2 = load i64, ptr %alignment.addr, align 8
  %vtable = load ptr, ptr %this1, align 8
  %vfn = getelementptr inbounds ptr, ptr %vtable, i64 2
  %3 = load ptr, ptr %vfn, align 8
  %call = call noundef ptr %3(ptr noundef nonnull align 8 dereferenceable(8) %this1, i64 noundef %1, i64 noundef %2)
  store ptr %call, ptr %retval, align 8
  br label %return

return:                                           ; preds = %if.end, %if.then
  %4 = load ptr, ptr %retval, align 8
  ret ptr %4
}

; Function Attrs: mustprogress nounwind uwtable
define linkonce_odr dso_local noundef ptr @_ZNK4pstd3pmr21polymorphic_allocatorISt4byteE8resourceEv(ptr noundef nonnull align 8 dereferenceable(8) %this) #5 comdat align 2 {
entry:
  %this.addr = alloca ptr, align 8
  store ptr %this, ptr %this.addr, align 8
  %this1 = load ptr, ptr %this.addr, align 8
  %memoryResource = getelementptr inbounds %"class.pstd::pmr::polymorphic_allocator", ptr %this1, i32 0, i32 0
  %0 = load ptr, ptr %memoryResource, align 8
  ret ptr %0
}

; Function Attrs: mustprogress nounwind uwtable
define linkonce_odr dso_local void @_ZN4pbrt21PointTransformMappingC2ERKNS_9TransformE(ptr noundef nonnull align 4 dereferenceable(128) %this, ptr noundef nonnull align 4 dereferenceable(128) %textureFromRender) unnamed_addr #5 comdat align 2 {
entry:
  %this.addr = alloca ptr, align 8
  %textureFromRender.addr = alloca ptr, align 8
  store ptr %this, ptr %this.addr, align 8
  store ptr %textureFromRender, ptr %textureFromRender.addr, align 8
  %this1 = load ptr, ptr %this.addr, align 8
  %textureFromRender2 = getelementptr inbounds %"class.pbrt::PointTransformMapping", ptr %this1, i32 0, i32 0
  %0 = load ptr, ptr %textureFromRender.addr, align 8
  call void @llvm.memcpy.p0.p0.i64(ptr align 4 %textureFromRender2, ptr align 4 %0, i64 128, i1 false)
  ret void
}

; Function Attrs: mustprogress uwtable
define linkonce_odr dso_local void @_ZN4pbrt12WindyTextureC2ENS_16TextureMapping3DE(ptr noundef nonnull align 8 dereferenceable(8) %this, ptr noundef %mapping) unnamed_addr #1 comdat align 2 {
entry:
  %this.addr = alloca ptr, align 8
  %mapping.indirect_addr = alloca ptr, align 8
  store ptr %this, ptr %this.addr, align 8
  store ptr %mapping, ptr %mapping.indirect_addr, align 8
  %this1 = load ptr, ptr %this.addr, align 8
  %mapping2 = getelementptr inbounds %"class.pbrt::WindyTexture", ptr %this1, i32 0, i32 0
  call void @_ZN4pbrt16TextureMapping3DC2ERKS0_(ptr noundef nonnull align 8 dereferenceable(8) %mapping2, ptr noundef nonnull align 8 dereferenceable(8) %mapping)
  ret void
}

; Function Attrs: mustprogress uwtable
define linkonce_odr dso_local void @_ZN4pbrt16TextureMapping3DC2ERKS0_(ptr noundef nonnull align 8 dereferenceable(8) %this, ptr noundef nonnull align 8 dereferenceable(8) %0) unnamed_addr #1 comdat align 2 {
entry:
  %this.addr = alloca ptr, align 8
  %.addr = alloca ptr, align 8
  store ptr %this, ptr %this.addr, align 8
  store ptr %0, ptr %.addr, align 8
  %this1 = load ptr, ptr %this.addr, align 8
  %1 = load ptr, ptr %.addr, align 8
  call void @_ZN4pbrt13TaggedPointerIJNS_21PointTransformMappingEEEC2ERKS2_(ptr noundef nonnull align 8 dereferenceable(8) %this1, ptr noundef nonnull align 8 dereferenceable(8) %1)
  ret void
}

; Function Attrs: mustprogress uwtable
define linkonce_odr dso_local noundef ptr @_ZN4pstd3pmr21polymorphic_allocatorISt4byteE14allocate_bytesEmm(ptr noundef nonnull align 8 dereferenceable(8) %this, i64 noundef %nbytes, i64 noundef %alignment) #1 comdat align 2 {
entry:
  %this.addr = alloca ptr, align 8
  %nbytes.addr = alloca i64, align 8
  %alignment.addr = alloca i64, align 8
  store ptr %this, ptr %this.addr, align 8
  store i64 %nbytes, ptr %nbytes.addr, align 8
  store i64 %alignment, ptr %alignment.addr, align 8
  %this1 = load ptr, ptr %this.addr, align 8
  %call = call noundef ptr @_ZNK4pstd3pmr21polymorphic_allocatorISt4byteE8resourceEv(ptr noundef nonnull align 8 dereferenceable(8) %this1)
  %0 = load i64, ptr %nbytes.addr, align 8
  %1 = load i64, ptr %alignment.addr, align 8
  %call2 = call noundef ptr @_ZN4pstd3pmr15memory_resource8allocateEmm(ptr noundef nonnull align 8 dereferenceable(8) %call, i64 noundef %0, i64 noundef %1)
  ret ptr %call2
}

; Function Attrs: mustprogress nounwind uwtable
define linkonce_odr dso_local void @_ZN4pbrt13TaggedPointerIJNS_21PointTransformMappingEEEC2IS1_EEPT_(ptr noundef nonnull align 8 dereferenceable(8) %this, ptr noundef %ptr) unnamed_addr #5 comdat align 2 {
entry:
  %this.addr = alloca ptr, align 8
  %ptr.addr = alloca ptr, align 8
  %iptr = alloca i64, align 8
  %type = alloca i32, align 4
  store ptr %this, ptr %this.addr, align 8
  store ptr %ptr, ptr %ptr.addr, align 8
  %this1 = load ptr, ptr %this.addr, align 8
  %bits = getelementptr inbounds %"class.pbrt::TaggedPointer.5", ptr %this1, i32 0, i32 0
  store i64 0, ptr %bits, align 8
  %0 = load ptr, ptr %ptr.addr, align 8
  %1 = ptrtoint ptr %0 to i64
  store i64 %1, ptr %iptr, align 8
  br label %do.body

do.body:                                          ; preds = %entry
  br label %do.end

do.end:                                           ; preds = %do.body
  store i32 1, ptr %type, align 4
  %2 = load i64, ptr %iptr, align 8
  %or = or i64 %2, 144115188075855872
  %bits2 = getelementptr inbounds %"class.pbrt::TaggedPointer.5", ptr %this1, i32 0, i32 0
  store i64 %or, ptr %bits2, align 8
  ret void
}

; Function Attrs: mustprogress uwtable
define linkonce_odr dso_local void @_ZN4pstd3pmr21polymorphic_allocatorISt4byteE9constructIN4pbrt21PointTransformMappingEJNS5_9TransformEEEEvPT_DpOT0_(ptr noundef nonnull align 8 dereferenceable(8) %this, ptr noundef %p, ptr noundef nonnull align 4 dereferenceable(128) %args) #1 comdat align 2 {
entry:
  %this.addr = alloca ptr, align 8
  %p.addr = alloca ptr, align 8
  %args.addr = alloca ptr, align 8
  store ptr %this, ptr %this.addr, align 8
  store ptr %p, ptr %p.addr, align 8
  store ptr %args, ptr %args.addr, align 8
  %0 = load ptr, ptr %p.addr, align 8
  %1 = load ptr, ptr %args.addr, align 8
  call void @_ZN4pbrt21PointTransformMappingC2ERKNS_9TransformE(ptr noundef nonnull align 4 dereferenceable(128) %0, ptr noundef nonnull align 4 dereferenceable(128) %1)
  ret void
}

; Function Attrs: mustprogress uwtable
define linkonce_odr dso_local noundef ptr @_ZN4pstd3pmr21polymorphic_allocatorISt4byteE15allocate_objectIN4pbrt21PointTransformMappingEEEPT_m(ptr noundef nonnull align 8 dereferenceable(8) %this, i64 noundef %n) #1 comdat align 2 {
entry:
  %this.addr = alloca ptr, align 8
  %n.addr = alloca i64, align 8
  store ptr %this, ptr %this.addr, align 8
  store i64 %n, ptr %n.addr, align 8
  %this1 = load ptr, ptr %this.addr, align 8
  %0 = load i64, ptr %n.addr, align 8
  %mul = mul i64 %0, 128
  %call = call noundef ptr @_ZN4pstd3pmr21polymorphic_allocatorISt4byteE14allocate_bytesEmm(ptr noundef nonnull align 8 dereferenceable(8) %this1, i64 noundef %mul, i64 noundef 4)
  ret ptr %call
}

; Function Attrs: mustprogress nounwind uwtable
define linkonce_odr dso_local void @_ZN4pbrt9TransformC2ERKNS_12SquareMatrixILi4EEES4_(ptr noundef nonnull align 4 dereferenceable(128) %this, ptr noundef nonnull align 4 dereferenceable(64) %m, ptr noundef nonnull align 4 dereferenceable(64) %mInv) unnamed_addr #5 comdat align 2 {
entry:
  %this.addr = alloca ptr, align 8
  %m.addr = alloca ptr, align 8
  %mInv.addr = alloca ptr, align 8
  store ptr %this, ptr %this.addr, align 8
  store ptr %m, ptr %m.addr, align 8
  store ptr %mInv, ptr %mInv.addr, align 8
  %this1 = load ptr, ptr %this.addr, align 8
  %m2 = getelementptr inbounds %"class.pbrt::Transform", ptr %this1, i32 0, i32 0
  %0 = load ptr, ptr %m.addr, align 8
  call void @llvm.memcpy.p0.p0.i64(ptr align 4 %m2, ptr align 4 %0, i64 64, i1 false)
  %mInv3 = getelementptr inbounds %"class.pbrt::Transform", ptr %this1, i32 0, i32 1
  %1 = load ptr, ptr %mInv.addr, align 8
  call void @llvm.memcpy.p0.p0.i64(ptr align 4 %mInv3, ptr align 4 %1, i64 64, i1 false)
  ret void
}

; Function Attrs: mustprogress nounwind uwtable
define linkonce_odr dso_local noundef nonnull align 4 dereferenceable(64) ptr @_ZNK4pbrt9Transform9GetMatrixEv(ptr noundef nonnull align 4 dereferenceable(128) %this) #5 comdat align 2 {
entry:
  %this.addr = alloca ptr, align 8
  store ptr %this, ptr %this.addr, align 8
  %this1 = load ptr, ptr %this.addr, align 8
  %m = getelementptr inbounds %"class.pbrt::Transform", ptr %this1, i32 0, i32 0
  ret ptr %m
}

; Function Attrs: mustprogress nounwind uwtable
define linkonce_odr dso_local noundef nonnull align 4 dereferenceable(64) ptr @_ZNK4pbrt9Transform16GetInverseMatrixEv(ptr noundef nonnull align 4 dereferenceable(128) %this) #5 comdat align 2 {
entry:
  %this.addr = alloca ptr, align 8
  store ptr %this, ptr %this.addr, align 8
  %this1 = load ptr, ptr %this.addr, align 8
  %mInv = getelementptr inbounds %"class.pbrt::Transform", ptr %this1, i32 0, i32 1
  ret ptr %mInv
}

; Function Attrs: mustprogress uwtable
define linkonce_odr dso_local void @_ZN4pstd3pmr21polymorphic_allocatorISt4byteE9constructIN4pbrt12WindyTextureEJRNS5_16TextureMapping3DEEEEvPT_DpOT0_(ptr noundef nonnull align 8 dereferenceable(8) %this, ptr noundef %p, ptr noundef nonnull align 8 dereferenceable(8) %args) #1 comdat align 2 {
entry:
  %this.addr = alloca ptr, align 8
  %p.addr = alloca ptr, align 8
  %args.addr = alloca ptr, align 8
  %agg.tmp = alloca %"class.pbrt::TextureMapping3D", align 8
  store ptr %this, ptr %this.addr, align 8
  store ptr %p, ptr %p.addr, align 8
  store ptr %args, ptr %args.addr, align 8
  %0 = load ptr, ptr %p.addr, align 8
  %1 = load ptr, ptr %args.addr, align 8
  call void @_ZN4pbrt16TextureMapping3DC2ERKS0_(ptr noundef nonnull align 8 dereferenceable(8) %agg.tmp, ptr noundef nonnull align 8 dereferenceable(8) %1)
  call void @_ZN4pbrt12WindyTextureC2ENS_16TextureMapping3DE(ptr noundef nonnull align 8 dereferenceable(8) %0, ptr noundef %agg.tmp)
  ret void
}

; Function Attrs: mustprogress uwtable
define linkonce_odr dso_local noundef ptr @_ZN4pstd3pmr21polymorphic_allocatorISt4byteE15allocate_objectIN4pbrt12WindyTextureEEEPT_m(ptr noundef nonnull align 8 dereferenceable(8) %this, i64 noundef %n) #1 comdat align 2 {
entry:
  %this.addr = alloca ptr, align 8
  %n.addr = alloca i64, align 8
  store ptr %this, ptr %this.addr, align 8
  store i64 %n, ptr %n.addr, align 8
  %this1 = load ptr, ptr %this.addr, align 8
  %0 = load i64, ptr %n.addr, align 8
  %mul = mul i64 %0, 8
  %call = call noundef ptr @_ZN4pstd3pmr21polymorphic_allocatorISt4byteE14allocate_bytesEmm(ptr noundef nonnull align 8 dereferenceable(8) %this1, i64 noundef %mul, i64 noundef 8)
  ret ptr %call
}

; Function Attrs: mustprogress uwtable
define linkonce_odr dso_local void @_ZN4pbrt16TextureMapping3DCI2NS_13TaggedPointerIJNS_21PointTransformMappingEEEEIS2_EEPT_(ptr noundef nonnull align 8 dereferenceable(8) %this, ptr noundef %0) unnamed_addr #1 comdat align 2 {
entry:
  %this.addr = alloca ptr, align 8
  %.addr = alloca ptr, align 8
  store ptr %this, ptr %this.addr, align 8
  store ptr %0, ptr %.addr, align 8
  %this1 = load ptr, ptr %this.addr, align 8
  %1 = load ptr, ptr %.addr, align 8
  call void @_ZN4pbrt13TaggedPointerIJNS_21PointTransformMappingEEEC2IS1_EEPT_(ptr noundef nonnull align 8 dereferenceable(8) %this1, ptr noundef %1)
  ret void
}

; Function Attrs: mustprogress uwtable
define linkonce_odr dso_local noundef ptr @_ZN4pstd3pmr21polymorphic_allocatorISt4byteE10new_objectIN4pbrt21PointTransformMappingEJNS5_9TransformEEEEPT_DpOT0_(ptr noundef nonnull align 8 dereferenceable(8) %this, ptr noundef nonnull align 4 dereferenceable(128) %args) #1 comdat align 2 {
entry:
  %this.addr = alloca ptr, align 8
  %args.addr = alloca ptr, align 8
  %p = alloca ptr, align 8
  store ptr %this, ptr %this.addr, align 8
  store ptr %args, ptr %args.addr, align 8
  %this1 = load ptr, ptr %this.addr, align 8
  %call = call noundef ptr @_ZN4pstd3pmr21polymorphic_allocatorISt4byteE15allocate_objectIN4pbrt21PointTransformMappingEEEPT_m(ptr noundef nonnull align 8 dereferenceable(8) %this1, i64 noundef 1)
  store ptr %call, ptr %p, align 8
  %0 = load ptr, ptr %p, align 8
  %1 = load ptr, ptr %args.addr, align 8
  call void @_ZN4pstd3pmr21polymorphic_allocatorISt4byteE9constructIN4pbrt21PointTransformMappingEJNS5_9TransformEEEEvPT_DpOT0_(ptr noundef nonnull align 8 dereferenceable(8) %this1, ptr noundef %0, ptr noundef nonnull align 4 dereferenceable(128) %1)
  %2 = load ptr, ptr %p, align 8
  ret ptr %2
}

; Function Attrs: mustprogress uwtable
define linkonce_odr dso_local void @_ZN4pbrt7InverseERKNS_9TransformE(ptr noalias sret(%"class.pbrt::Transform") align 4 %agg.result, ptr noundef nonnull align 4 dereferenceable(128) %t) #1 comdat {
entry:
  %t.addr = alloca ptr, align 8
  store ptr %t, ptr %t.addr, align 8
  %0 = load ptr, ptr %t.addr, align 8
  %call = call noundef nonnull align 4 dereferenceable(64) ptr @_ZNK4pbrt9Transform16GetInverseMatrixEv(ptr noundef nonnull align 4 dereferenceable(128) %0)
  %1 = load ptr, ptr %t.addr, align 8
  %call1 = call noundef nonnull align 4 dereferenceable(64) ptr @_ZNK4pbrt9Transform9GetMatrixEv(ptr noundef nonnull align 4 dereferenceable(128) %1)
  call void @_ZN4pbrt9TransformC2ERKNS_12SquareMatrixILi4EEES4_(ptr noundef nonnull align 4 dereferenceable(128) %agg.result, ptr noundef nonnull align 4 dereferenceable(64) %call, ptr noundef nonnull align 4 dereferenceable(64) %call1)
  ret void
}

; Function Attrs: mustprogress uwtable
define linkonce_odr dso_local noundef ptr @_ZN4pstd3pmr21polymorphic_allocatorISt4byteE10new_objectIN4pbrt12WindyTextureEJRNS5_16TextureMapping3DEEEEPT_DpOT0_(ptr noundef nonnull align 8 dereferenceable(8) %this, ptr noundef nonnull align 8 dereferenceable(8) %args) #1 comdat align 2 {
entry:
  %this.addr = alloca ptr, align 8
  %args.addr = alloca ptr, align 8
  %p = alloca ptr, align 8
  store ptr %this, ptr %this.addr, align 8
  store ptr %args, ptr %args.addr, align 8
  %this1 = load ptr, ptr %this.addr, align 8
  %call = call noundef ptr @_ZN4pstd3pmr21polymorphic_allocatorISt4byteE15allocate_objectIN4pbrt12WindyTextureEEEPT_m(ptr noundef nonnull align 8 dereferenceable(8) %this1, i64 noundef 1)
  store ptr %call, ptr %p, align 8
  %0 = load ptr, ptr %p, align 8
  %1 = load ptr, ptr %args.addr, align 8
  call void @_ZN4pstd3pmr21polymorphic_allocatorISt4byteE9constructIN4pbrt12WindyTextureEJRNS5_16TextureMapping3DEEEEvPT_DpOT0_(ptr noundef nonnull align 8 dereferenceable(8) %this1, ptr noundef %0, ptr noundef nonnull align 8 dereferenceable(8) %1)
  %2 = load ptr, ptr %p, align 8
  ret ptr %2
}

; Function Attrs: mustprogress uwtable
define dso_local void @_ZN4pbrt16TextureMapping3D6CreateERKNS_19ParameterDictionaryERKNS_9TransformEPKNS_7FileLocEN4pstd3pmr21polymorphic_allocatorISt4byteEE(ptr noalias sret(%"class.pbrt::TextureMapping3D") align 8 %agg.result, ptr noundef nonnull align 8 dereferenceable(108) %parameters, ptr noundef nonnull align 4 dereferenceable(128) %renderFromTexture, ptr noundef %loc, ptr %alloc.coerce) #1 align 2 {
entry:
  %result.ptr = alloca ptr, align 8
  %alloc = alloca %"class.pstd::pmr::polymorphic_allocator", align 8
  %parameters.addr = alloca ptr, align 8
  %renderFromTexture.addr = alloca ptr, align 8
  %loc.addr = alloca ptr, align 8
  %ref.tmp = alloca %"class.pbrt::Transform", align 4
  store ptr %agg.result, ptr %result.ptr, align 8
  %coerce.dive = getelementptr inbounds %"class.pstd::pmr::polymorphic_allocator", ptr %alloc, i32 0, i32 0
  store ptr %alloc.coerce, ptr %coerce.dive, align 8
  store ptr %parameters, ptr %parameters.addr, align 8
  store ptr %renderFromTexture, ptr %renderFromTexture.addr, align 8
  store ptr %loc, ptr %loc.addr, align 8
  %0 = load ptr, ptr %renderFromTexture.addr, align 8
  call void @_ZN4pbrt7InverseERKNS_9TransformE(ptr sret(%"class.pbrt::Transform") align 4 %ref.tmp, ptr noundef nonnull align 4 dereferenceable(128) %0)
  %call = call noundef ptr @_ZN4pstd3pmr21polymorphic_allocatorISt4byteE10new_objectIN4pbrt21PointTransformMappingEJNS5_9TransformEEEEPT_DpOT0_(ptr noundef nonnull align 8 dereferenceable(8) %alloc, ptr noundef nonnull align 4 dereferenceable(128) %ref.tmp)
  call void @_ZN4pbrt16TextureMapping3DCI2NS_13TaggedPointerIJNS_21PointTransformMappingEEEEIS2_EEPT_(ptr noundef nonnull align 8 dereferenceable(8) %agg.result, ptr noundef %call)
  ret void
}

; Function Attrs: mustprogress nounwind uwtable
define linkonce_odr dso_local noundef nonnull align 8 dereferenceable(108) ptr @_ZNK4pbrt26TextureParameterDictionarycvRKNS_19ParameterDictionaryEEv(ptr noundef nonnull align 8 dereferenceable(16) %this) #5 comdat align 2 {
entry:
  %this.addr = alloca ptr, align 8
  store ptr %this, ptr %this.addr, align 8
  %this1 = load ptr, ptr %this.addr, align 8
  %dict = getelementptr inbounds %"class.pbrt::TextureParameterDictionary", ptr %this1, i32 0, i32 0
  %0 = load ptr, ptr %dict, align 8
  ret ptr %0
}

; Function Attrs: mustprogress uwtable
define dso_local noundef ptr @_ZN4pbrt12WindyTexture6CreateERKNS_9TransformERKNS_26TextureParameterDictionaryEPKNS_7FileLocEN4pstd3pmr21polymorphic_allocatorISt4byteEE(ptr noundef nonnull align 4 dereferenceable(128) %renderFromTexture, ptr noundef nonnull align 8 dereferenceable(16) %parameters, ptr noundef %loc, ptr %alloc.coerce) #1 align 2 {
entry:
  %alloc = alloca %"class.pstd::pmr::polymorphic_allocator", align 8
  %renderFromTexture.addr = alloca ptr, align 8
  %parameters.addr = alloca ptr, align 8
  %loc.addr = alloca ptr, align 8
  %map = alloca %"class.pbrt::TextureMapping3D", align 8
  %agg.tmp = alloca %"class.pstd::pmr::polymorphic_allocator", align 8
  %coerce.dive = getelementptr inbounds %"class.pstd::pmr::polymorphic_allocator", ptr %alloc, i32 0, i32 0
  store ptr %alloc.coerce, ptr %coerce.dive, align 8
  store ptr %renderFromTexture, ptr %renderFromTexture.addr, align 8
  store ptr %parameters, ptr %parameters.addr, align 8
  store ptr %loc, ptr %loc.addr, align 8
  %0 = load ptr, ptr %parameters.addr, align 8
  %call = call noundef nonnull align 8 dereferenceable(108) ptr @_ZNK4pbrt26TextureParameterDictionarycvRKNS_19ParameterDictionaryEEv(ptr noundef nonnull align 8 dereferenceable(16) %0)
  %1 = load ptr, ptr %renderFromTexture.addr, align 8
  %2 = load ptr, ptr %loc.addr, align 8
  call void @llvm.memcpy.p0.p0.i64(ptr align 8 %agg.tmp, ptr align 8 %alloc, i64 8, i1 false)
  %coerce.dive1 = getelementptr inbounds %"class.pstd::pmr::polymorphic_allocator", ptr %agg.tmp, i32 0, i32 0
  %3 = load ptr, ptr %coerce.dive1, align 8
  call void @_ZN4pbrt16TextureMapping3D6CreateERKNS_19ParameterDictionaryERKNS_9TransformEPKNS_7FileLocEN4pstd3pmr21polymorphic_allocatorISt4byteEE(ptr sret(%"class.pbrt::TextureMapping3D") align 8 %map, ptr noundef nonnull align 8 dereferenceable(108) %call, ptr noundef nonnull align 4 dereferenceable(128) %1, ptr noundef %2, ptr %3)
  %call2 = call noundef ptr @_ZN4pstd3pmr21polymorphic_allocatorISt4byteE10new_objectIN4pbrt12WindyTextureEJRNS5_16TextureMapping3DEEEEPT_DpOT0_(ptr noundef nonnull align 8 dereferenceable(8) %alloc, ptr noundef nonnull align 8 dereferenceable(8) %map)
  ret ptr %call2
}