; Function Attrs: mustprogress uwtable
define dso_local noundef ptr @_ZN4pbrt12WindyTexture6CreateERKNS_9TransformERKNS_26TextureParameterDictionaryEPKNS_7FileLocEN4pstd3pmr21polymorphic_allocatorISt4byteEE(ptr nocapture noundef nonnull readonly align 4 dereferenceable(128) %renderFromTexture, ptr nocapture noundef nonnull readonly align 8 dereferenceable(16) %parameters, ptr nocapture noundef readnone %loc, ptr %alloc.coerce) local_unnamed_addr #0 align 2 {
entry:
  %ref.tmp.i = alloca %"class.pbrt::Transform", align 4
  call void @llvm.lifetime.start.p0(i64 128, ptr nonnull %ref.tmp.i)
  %mInv.i.i.i = getelementptr inbounds i8, ptr %renderFromTexture, i64 64
  call void @llvm.memcpy.p0.p0.i64(ptr noundef nonnull align 4 dereferenceable(64) %ref.tmp.i, ptr noundef nonnull align 4 dereferenceable(64) %mInv.i.i.i, i64 64, i1 false), !noalias !123
  %mInv3.i.i.i = getelementptr inbounds i8, ptr %ref.tmp.i, i64 64
  call void @llvm.memcpy.p0.p0.i64(ptr noundef nonnull align 4 dereferenceable(64) %mInv3.i.i.i, ptr noundef nonnull align 4 dereferenceable(64) %renderFromTexture, i64 64, i1 false), !noalias !123
  %vtable.i.i.i.i.i = load ptr, ptr %alloc.coerce, align 8, !noalias !123
  %vfn.i.i.i.i.i = getelementptr inbounds i8, ptr %vtable.i.i.i.i.i, i64 16
  %0 = load ptr, ptr %vfn.i.i.i.i.i, align 8, !noalias !123
  %call.i.i.i.i.i = tail call noundef ptr %0(ptr noundef nonnull align 8 dereferenceable(8) %alloc.coerce, i64 noundef 128, i64 noundef 4), !noalias !123
  call void @llvm.memcpy.p0.p0.i64(ptr noundef nonnull align 4 dereferenceable(128) %call.i.i.i.i.i, ptr noundef nonnull align 4 dereferenceable(128) %ref.tmp.i, i64 128, i1 false), !noalias !123
  %1 = ptrtoint ptr %call.i.i.i.i.i to i64
  %or.i.i.i = or i64 %1, 144115188075855872
  call void @llvm.lifetime.end.p0(i64 128, ptr nonnull %ref.tmp.i)
  %vtable.i.i.i.i = load ptr, ptr %alloc.coerce, align 8
  %vfn.i.i.i.i = getelementptr inbounds i8, ptr %vtable.i.i.i.i, i64 16
  %2 = load ptr, ptr %vfn.i.i.i.i, align 8
  %call.i.i.i.i = tail call noundef ptr %2(ptr noundef nonnull align 8 dereferenceable(8) %alloc.coerce, i64 noundef 8, i64 noundef 8)
  store i64 %or.i.i.i, ptr %call.i.i.i.i, align 8
  ret ptr %call.i.i.i.i
}